; Function Attrs: nounwind uwtable
define void @N_VCompare_SensWrapper(double noundef %0, ptr noundef readonly captures(none) %1, ptr noundef readonly captures(none) %2) #0 {
  %4 = load ptr, ptr %1, align 8, !tbaa !39
  %5 = getelementptr inbounds nuw i8, ptr %4, i64 8
  %6 = load i32, ptr %5, align 8, !tbaa !33
  %7 = icmp sgt i32 %6, 0
  br i1 %7, label %.lr.ph, label %._crit_edge

.lr.ph:                                           ; preds = %3, %.lr.ph
  %indvars.iv = phi i64 [ %indvars.iv.next, %.lr.ph ], [ 0, %3 ]
  %8 = phi ptr [ %16, %.lr.ph ], [ %4, %3 ]
  %9 = load ptr, ptr %8, align 8, !tbaa !38
  %10 = getelementptr inbounds nuw ptr, ptr %9, i64 %indvars.iv
  %11 = load ptr, ptr %10, align 8, !tbaa !40
  %12 = load ptr, ptr %2, align 8, !tbaa !39
  %13 = load ptr, ptr %12, align 8, !tbaa !38
  %14 = getelementptr inbounds nuw ptr, ptr %13, i64 %indvars.iv
  %15 = load ptr, ptr %14, align 8, !tbaa !40
  tail call void @N_VCompare(double noundef %0, ptr noundef %11, ptr noundef %15) #7
  %indvars.iv.next = add nuw nsw i64 %indvars.iv, 1
  %16 = load ptr, ptr %1, align 8, !tbaa !39
  %17 = getelementptr inbounds nuw i8, ptr %16, i64 8
  %18 = load i32, ptr %17, align 8, !tbaa !33
  %19 = sext i32 %18 to i64
  %20 = icmp slt i64 %indvars.iv.next, %19
  br i1 %20, label %.lr.ph, label %._crit_edge

._crit_edge:                                      ; preds = %.lr.ph, %3
  ret void
}